target datalayout = "e-m:e-p270:32:32-p271:32:32-p272:64:64-i64:64-i128:128-f80:128-n8:16:32:64-S128"
target triple = "x86_64-pc-linux-gnu"

%"class.ncnn::Mat" = type { ptr, ptr, i64, i32, ptr, i32, i32, i32, i32, i32, i64 }

; Function Attrs: mustprogress uwtable
define hidden void @_ZNK4ncnn8ModelBin4loadEiiii(ptr dead_on_unwind noalias writable sret(%"class.ncnn::Mat") align 8 %0, ptr noundef nonnull align 8 dereferenceable(8) %1, i32 noundef %2, i32 noundef %3, i32 noundef %4, i32 noundef %5) unnamed_addr #2 align 2 personality ptr @__gxx_personality_v0 {
  %7 = alloca ptr, align 8
  %8 = alloca ptr, align 8
  %9 = alloca ptr, align 8
  %10 = alloca i32, align 4
  %11 = alloca i32, align 4
  %12 = alloca ptr, align 8
  %13 = alloca i32, align 4
  %14 = alloca i32, align 4
  %15 = alloca ptr, align 8
  %16 = alloca i32, align 4
  %17 = alloca i32, align 4
  %18 = alloca ptr, align 8
  %19 = alloca ptr, align 8
  %20 = alloca ptr, align 8
  %21 = alloca ptr, align 8
  %22 = alloca ptr, align 8
  %23 = alloca ptr, align 8
  %24 = alloca ptr, align 8
  %25 = alloca ptr, align 8
  %26 = alloca i32, align 4
  %27 = alloca i32, align 4
  %28 = alloca i32, align 4
  %29 = alloca i32, align 4
  %30 = alloca %"class.ncnn::Mat", align 8
  %31 = alloca ptr, align 8
  %32 = alloca i32, align 4
  %33 = alloca i32, align 4
  store ptr %0, ptr %24, align 8
  store ptr %1, ptr %25, align 8
  store i32 %2, ptr %26, align 4
  store i32 %3, ptr %27, align 4
  store i32 %4, ptr %28, align 4
  store i32 %5, ptr %29, align 4
  %34 = load ptr, ptr %25, align 8
  %35 = load i32, ptr %26, align 4
  %36 = load i32, ptr %27, align 4
  %37 = mul nsw i32 %35, %36
  %38 = load i32, ptr %28, align 4
  %39 = mul nsw i32 %37, %38
  %40 = load i32, ptr %29, align 4
  %41 = load ptr, ptr %34, align 8
  %42 = getelementptr inbounds ptr, ptr %41, i64 2
  %43 = load ptr, ptr %42, align 8
  call void %43(ptr dead_on_unwind writable sret(%"class.ncnn::Mat") align 8 %30, ptr noundef nonnull align 8 dereferenceable(8) %34, i32 noundef %39, i32 noundef %40)
  store ptr %30, ptr %23, align 8
  %44 = load ptr, ptr %23, align 8
  %45 = load ptr, ptr %44, align 8
  %46 = icmp eq ptr %45, null
  br i1 %46, label %56, label %47

47:                                               ; preds = %6
  store ptr %44, ptr %18, align 8
  %48 = load ptr, ptr %18, align 8
  %49 = getelementptr inbounds nuw %"class.ncnn::Mat", ptr %48, i32 0, i32 10
  %50 = load i64, ptr %49, align 8
  %51 = getelementptr inbounds nuw %"class.ncnn::Mat", ptr %48, i32 0, i32 9
  %52 = load i32, ptr %51, align 8
  %53 = sext i32 %52 to i64
  %54 = mul i64 %50, %53
  %55 = icmp eq i64 %54, 0
  br label %56

56:                                               ; preds = %47, %6
  %57 = phi i1 [ true, %6 ], [ %55, %47 ]
  br label %58

58:                                               ; preds = %56
  br i1 %57, label %59, label %164

59:                                               ; preds = %58
  store ptr %0, ptr %21, align 8
  store ptr %30, ptr %22, align 8
  %60 = load ptr, ptr %21, align 8
  %61 = load ptr, ptr %22, align 8
  %62 = load ptr, ptr %61, align 8
  store ptr %62, ptr %60, align 8
  %63 = getelementptr inbounds nuw %"class.ncnn::Mat", ptr %60, i32 0, i32 1
  %64 = load ptr, ptr %22, align 8
  %65 = getelementptr inbounds nuw %"class.ncnn::Mat", ptr %64, i32 0, i32 1
  %66 = load ptr, ptr %65, align 8
  store ptr %66, ptr %63, align 8
  %67 = getelementptr inbounds nuw %"class.ncnn::Mat", ptr %60, i32 0, i32 2
  %68 = load ptr, ptr %22, align 8
  %69 = getelementptr inbounds nuw %"class.ncnn::Mat", ptr %68, i32 0, i32 2
  %70 = load i64, ptr %69, align 8
  store i64 %70, ptr %67, align 8
  %71 = getelementptr inbounds nuw %"class.ncnn::Mat", ptr %60, i32 0, i32 3
  %72 = load ptr, ptr %22, align 8
  %73 = getelementptr inbounds nuw %"class.ncnn::Mat", ptr %72, i32 0, i32 3
  %74 = load i32, ptr %73, align 8
  store i32 %74, ptr %71, align 8
  %75 = getelementptr inbounds nuw %"class.ncnn::Mat", ptr %60, i32 0, i32 4
  %76 = load ptr, ptr %22, align 8
  %77 = getelementptr inbounds nuw %"class.ncnn::Mat", ptr %76, i32 0, i32 4
  %78 = load ptr, ptr %77, align 8
  store ptr %78, ptr %75, align 8
  %79 = getelementptr inbounds nuw %"class.ncnn::Mat", ptr %60, i32 0, i32 5
  %80 = load ptr, ptr %22, align 8
  %81 = getelementptr inbounds nuw %"class.ncnn::Mat", ptr %80, i32 0, i32 5
  %82 = load i32, ptr %81, align 8
  store i32 %82, ptr %79, align 8
  %83 = getelementptr inbounds nuw %"class.ncnn::Mat", ptr %60, i32 0, i32 6
  %84 = load ptr, ptr %22, align 8
  %85 = getelementptr inbounds nuw %"class.ncnn::Mat", ptr %84, i32 0, i32 6
  %86 = load i32, ptr %85, align 4
  store i32 %86, ptr %83, align 4
  %87 = getelementptr inbounds nuw %"class.ncnn::Mat", ptr %60, i32 0, i32 7
  %88 = load ptr, ptr %22, align 8
  %89 = getelementptr inbounds nuw %"class.ncnn::Mat", ptr %88, i32 0, i32 7
  %90 = load i32, ptr %89, align 8
  store i32 %90, ptr %87, align 8
  %91 = getelementptr inbounds nuw %"class.ncnn::Mat", ptr %60, i32 0, i32 8
  %92 = load ptr, ptr %22, align 8
  %93 = getelementptr inbounds nuw %"class.ncnn::Mat", ptr %92, i32 0, i32 8
  %94 = load i32, ptr %93, align 4
  store i32 %94, ptr %91, align 4
  %95 = getelementptr inbounds nuw %"class.ncnn::Mat", ptr %60, i32 0, i32 9
  %96 = load ptr, ptr %22, align 8
  %97 = getelementptr inbounds nuw %"class.ncnn::Mat", ptr %96, i32 0, i32 9
  %98 = load i32, ptr %97, align 8
  store i32 %98, ptr %95, align 8
  %99 = getelementptr inbounds nuw %"class.ncnn::Mat", ptr %60, i32 0, i32 10
  %100 = load ptr, ptr %22, align 8
  %101 = getelementptr inbounds nuw %"class.ncnn::Mat", ptr %100, i32 0, i32 10
  %102 = load i64, ptr %101, align 8
  store i64 %102, ptr %99, align 8
  store ptr %60, ptr %15, align 8
  %103 = load ptr, ptr %15, align 8
  %104 = getelementptr inbounds nuw %"class.ncnn::Mat", ptr %103, i32 0, i32 1
  %105 = load ptr, ptr %104, align 8
  %106 = icmp ne ptr %105, null
  br i1 %106, label %107, label %112

107:                                              ; preds = %59
  %108 = getelementptr inbounds nuw %"class.ncnn::Mat", ptr %103, i32 0, i32 1
  %109 = load ptr, ptr %108, align 8
  store i32 1, ptr %16, align 4
  %110 = load i32, ptr %16, align 4
  %111 = atomicrmw add ptr %109, i32 %110 acq_rel, align 4
  store i32 %111, ptr %17, align 4
  br label %112

112:                                              ; preds = %107, %59
  br label %113

113:                                              ; preds = %112
  store i32 1, ptr %33, align 4
  br label %169

114:                                              ; preds = %164
  %115 = landingpad { ptr, i32 }
          cleanup
  %116 = extractvalue { ptr, i32 } %115, 0
  store ptr %116, ptr %31, align 8
  %117 = extractvalue { ptr, i32 } %115, 1
  store i32 %117, ptr %32, align 4
  store ptr %30, ptr %19, align 8
  %118 = load ptr, ptr %19, align 8
  store ptr %118, ptr %12, align 8
  %119 = load ptr, ptr %12, align 8
  %120 = getelementptr inbounds nuw %"class.ncnn::Mat", ptr %119, i32 0, i32 1
  %121 = load ptr, ptr %120, align 8
  %122 = icmp ne ptr %121, null
  br i1 %122, label %123, label %150

123:                                              ; preds = %114
  %124 = getelementptr inbounds nuw %"class.ncnn::Mat", ptr %119, i32 0, i32 1
  %125 = load ptr, ptr %124, align 8
  store i32 -1, ptr %13, align 4
  %126 = load i32, ptr %13, align 4
  %127 = atomicrmw add ptr %125, i32 %126 acq_rel, align 4
  store i32 %127, ptr %14, align 4
  %128 = load i32, ptr %14, align 4
  %129 = icmp eq i32 %128, 1
  br i1 %129, label %130, label %150

130:                                              ; preds = %123
  %131 = getelementptr inbounds nuw %"class.ncnn::Mat", ptr %119, i32 0, i32 4
  %132 = load ptr, ptr %131, align 8
  %133 = icmp ne ptr %132, null
  br i1 %133, label %134, label %142

134:                                              ; preds = %130
  %135 = getelementptr inbounds nuw %"class.ncnn::Mat", ptr %119, i32 0, i32 4
  %136 = load ptr, ptr %135, align 8
  %137 = load ptr, ptr %119, align 8
  %138 = load ptr, ptr %136, align 8
  %139 = getelementptr inbounds ptr, ptr %138, i64 3
  %140 = load ptr, ptr %139, align 8
  invoke void %140(ptr noundef nonnull align 8 dereferenceable(8) %136, ptr noundef %137)
          to label %141 unwind label %160

141:                                              ; preds = %134
  br label %149

142:                                              ; preds = %130
  %143 = load ptr, ptr %119, align 8
  store ptr %143, ptr %7, align 8
  %144 = load ptr, ptr %7, align 8
  %145 = icmp ne ptr %144, null
  br i1 %145, label %146, label %148

146:                                              ; preds = %142
  %147 = load ptr, ptr %7, align 8
  call void @free(ptr noundef %147) #10
  br label %148

148:                                              ; preds = %146, %142
  br label %149

149:                                              ; preds = %148, %141
  br label %150

150:                                              ; preds = %149, %123, %114
  store ptr null, ptr %119, align 8
  %151 = getelementptr inbounds nuw %"class.ncnn::Mat", ptr %119, i32 0, i32 2
  store i64 0, ptr %151, align 8
  %152 = getelementptr inbounds nuw %"class.ncnn::Mat", ptr %119, i32 0, i32 3
  store i32 0, ptr %152, align 8
  %153 = getelementptr inbounds nuw %"class.ncnn::Mat", ptr %119, i32 0, i32 5
  store i32 0, ptr %153, align 8
  %154 = getelementptr inbounds nuw %"class.ncnn::Mat", ptr %119, i32 0, i32 6
  store i32 0, ptr %154, align 4
  %155 = getelementptr inbounds nuw %"class.ncnn::Mat", ptr %119, i32 0, i32 7
  store i32 0, ptr %155, align 8
  %156 = getelementptr inbounds nuw %"class.ncnn::Mat", ptr %119, i32 0, i32 8
  store i32 0, ptr %156, align 4
  %157 = getelementptr inbounds nuw %"class.ncnn::Mat", ptr %119, i32 0, i32 9
  store i32 0, ptr %157, align 8
  %158 = getelementptr inbounds nuw %"class.ncnn::Mat", ptr %119, i32 0, i32 10
  store i64 0, ptr %158, align 8
  %159 = getelementptr inbounds nuw %"class.ncnn::Mat", ptr %119, i32 0, i32 1
  store ptr null, ptr %159, align 8
  br label %163

160:                                              ; preds = %134
  %161 = landingpad { ptr, i32 }
          catch ptr null
  %162 = extractvalue { ptr, i32 } %161, 0
  call void @__clang_call_terminate(ptr %162) #12
  unreachable

163:                                              ; preds = %150
  br label %216

164:                                              ; preds = %58
  %165 = load i32, ptr %26, align 4
  %166 = load i32, ptr %27, align 4
  %167 = load i32, ptr %28, align 4
  invoke void @_ZNK4ncnn3Mat7reshapeEiiiPNS_9AllocatorE(ptr dead_on_unwind writable sret(%"class.ncnn::Mat") align 8 %0, ptr noundef nonnull align 8 dereferenceable(72) %30, i32 noundef %165, i32 noundef %166, i32 noundef %167, ptr noundef null)
          to label %168 unwind label %114

168:                                              ; preds = %164
  store i32 1, ptr %33, align 4
  br label %169

169:                                              ; preds = %168, %113
  store ptr %30, ptr %20, align 8
  %170 = load ptr, ptr %20, align 8
  store ptr %170, ptr %9, align 8
  %171 = load ptr, ptr %9, align 8
  %172 = getelementptr inbounds nuw %"class.ncnn::Mat", ptr %171, i32 0, i32 1
  %173 = load ptr, ptr %172, align 8
  %174 = icmp ne ptr %173, null
  br i1 %174, label %175, label %202

175:                                              ; preds = %169
  %176 = getelementptr inbounds nuw %"class.ncnn::Mat", ptr %171, i32 0, i32 1
  %177 = load ptr, ptr %176, align 8
  store i32 -1, ptr %10, align 4
  %178 = load i32, ptr %10, align 4
  %179 = atomicrmw add ptr %177, i32 %178 acq_rel, align 4
  store i32 %179, ptr %11, align 4
  %180 = load i32, ptr %11, align 4
  %181 = icmp eq i32 %180, 1
  br i1 %181, label %182, label %202

182:                                              ; preds = %175
  %183 = getelementptr inbounds nuw %"class.ncnn::Mat", ptr %171, i32 0, i32 4
  %184 = load ptr, ptr %183, align 8
  %185 = icmp ne ptr %184, null
  br i1 %185, label %186, label %194

186:                                              ; preds = %182
  %187 = getelementptr inbounds nuw %"class.ncnn::Mat", ptr %171, i32 0, i32 4
  %188 = load ptr, ptr %187, align 8
  %189 = load ptr, ptr %171, align 8
  %190 = load ptr, ptr %188, align 8
  %191 = getelementptr inbounds ptr, ptr %190, i64 3
  %192 = load ptr, ptr %191, align 8
  invoke void %192(ptr noundef nonnull align 8 dereferenceable(8) %188, ptr noundef %189)
          to label %193 unwind label %212

193:                                              ; preds = %186
  br label %201

194:                                              ; preds = %182
  %195 = load ptr, ptr %171, align 8
  store ptr %195, ptr %8, align 8
  %196 = load ptr, ptr %8, align 8
  %197 = icmp ne ptr %196, null
  br i1 %197, label %198, label %200

198:                                              ; preds = %194
  %199 = load ptr, ptr %8, align 8
  call void @free(ptr noundef %199) #10
  br label %200

200:                                              ; preds = %198, %194
  br label %201

201:                                              ; preds = %200, %193
  br label %202

202:                                              ; preds = %201, %175, %169
  store ptr null, ptr %171, align 8
  %203 = getelementptr inbounds nuw %"class.ncnn::Mat", ptr %171, i32 0, i32 2
  store i64 0, ptr %203, align 8
  %204 = getelementptr inbounds nuw %"class.ncnn::Mat", ptr %171, i32 0, i32 3
  store i32 0, ptr %204, align 8
  %205 = getelementptr inbounds nuw %"class.ncnn::Mat", ptr %171, i32 0, i32 5
  store i32 0, ptr %205, align 8
  %206 = getelementptr inbounds nuw %"class.ncnn::Mat", ptr %171, i32 0, i32 6
  store i32 0, ptr %206, align 4
  %207 = getelementptr inbounds nuw %"class.ncnn::Mat", ptr %171, i32 0, i32 7
  store i32 0, ptr %207, align 8
  %208 = getelementptr inbounds nuw %"class.ncnn::Mat", ptr %171, i32 0, i32 8
  store i32 0, ptr %208, align 4
  %209 = getelementptr inbounds nuw %"class.ncnn::Mat", ptr %171, i32 0, i32 9
  store i32 0, ptr %209, align 8
  %210 = getelementptr inbounds nuw %"class.ncnn::Mat", ptr %171, i32 0, i32 10
  store i64 0, ptr %210, align 8
  %211 = getelementptr inbounds nuw %"class.ncnn::Mat", ptr %171, i32 0, i32 1
  store ptr null, ptr %211, align 8
  br label %215

212:                                              ; preds = %186
  %213 = landingpad { ptr, i32 }
          catch ptr null
  %214 = extractvalue { ptr, i32 } %213, 0
  call void @__clang_call_terminate(ptr %214) #12
  unreachable

215:                                              ; preds = %202
  ret void

216:                                              ; preds = %163
  %217 = load ptr, ptr %31, align 8
  %218 = load i32, ptr %32, align 4
  %219 = insertvalue { ptr, i32 } poison, ptr %217, 0
  %220 = insertvalue { ptr, i32 } %219, i32 %218, 1
  resume { ptr, i32 } %220
}