; Function Attrs: mustprogress uwtable
define hidden void @_ZNK4ncnn8ModelBin4loadEiiii(ptr dead_on_unwind noalias writable sret(%"class.ncnn::Mat") align 8 %0, ptr noundef nonnull align 8 dereferenceable(8) %1, i32 noundef %2, i32 noundef %3, i32 noundef %4, i32 noundef %5) unnamed_addr #4 align 2 personality ptr @__gxx_personality_v0 {
  %7 = alloca %"class.ncnn::Mat", align 8
  %8 = mul nsw i32 %3, %2
  %9 = mul nsw i32 %8, %4
  %10 = load ptr, ptr %1, align 8
  %11 = getelementptr inbounds i8, ptr %10, i64 16
  %12 = load ptr, ptr %11, align 8
  call void %12(ptr dead_on_unwind nonnull writable sret(%"class.ncnn::Mat") align 8 %7, ptr noundef nonnull align 8 dereferenceable(8) %1, i32 noundef %9, i32 noundef %5)
  %13 = load ptr, ptr %7, align 8
  %14 = icmp eq ptr %13, null
  br i1 %14, label %..critedge_crit_edge, label %15

..critedge_crit_edge:                             ; preds = %6
  %.phi.trans.insert = getelementptr inbounds nuw i8, ptr %7, i64 56
  %.pre = load i32, ptr %.phi.trans.insert, align 8
  %.phi.trans.insert49 = getelementptr inbounds nuw i8, ptr %7, i64 64
  %.pre50 = load i64, ptr %.phi.trans.insert49, align 8
  br label %.critedge

15:                                               ; preds = %6
  %16 = getelementptr inbounds nuw i8, ptr %7, i64 64
  %17 = load i64, ptr %16, align 8
  %18 = getelementptr inbounds nuw i8, ptr %7, i64 56
  %19 = load i32, ptr %18, align 8
  %20 = sext i32 %19 to i64
  %21 = mul i64 %17, %20
  %22 = icmp eq i64 %21, 0
  br i1 %22, label %.critedge, label %74

.critedge:                                        ; preds = %..critedge_crit_edge, %15
  %23 = phi i64 [ %.pre50, %..critedge_crit_edge ], [ %17, %15 ]
  %24 = phi i32 [ %.pre, %..critedge_crit_edge ], [ %19, %15 ]
  store ptr %13, ptr %0, align 8
  %25 = getelementptr inbounds nuw i8, ptr %0, i64 8
  %26 = getelementptr inbounds nuw i8, ptr %7, i64 8
  %27 = load ptr, ptr %26, align 8
  store ptr %27, ptr %25, align 8
  %28 = getelementptr inbounds nuw i8, ptr %0, i64 16
  %29 = getelementptr inbounds nuw i8, ptr %7, i64 16
  %30 = load i64, ptr %29, align 8
  store i64 %30, ptr %28, align 8
  %31 = getelementptr inbounds nuw i8, ptr %0, i64 24
  %32 = getelementptr inbounds nuw i8, ptr %7, i64 24
  %33 = load i32, ptr %32, align 8
  store i32 %33, ptr %31, align 8
  %34 = getelementptr inbounds nuw i8, ptr %0, i64 32
  %35 = getelementptr inbounds nuw i8, ptr %7, i64 32
  %36 = load ptr, ptr %35, align 8
  store ptr %36, ptr %34, align 8
  %37 = getelementptr inbounds nuw i8, ptr %0, i64 40
  %38 = getelementptr inbounds nuw i8, ptr %7, i64 40
  %39 = load i32, ptr %38, align 8
  store i32 %39, ptr %37, align 8
  %40 = getelementptr inbounds nuw i8, ptr %0, i64 44
  %41 = getelementptr inbounds nuw i8, ptr %7, i64 44
  %42 = load i32, ptr %41, align 4
  store i32 %42, ptr %40, align 4
  %43 = getelementptr inbounds nuw i8, ptr %0, i64 48
  %44 = getelementptr inbounds nuw i8, ptr %7, i64 48
  %45 = load i32, ptr %44, align 8
  store i32 %45, ptr %43, align 8
  %46 = getelementptr inbounds nuw i8, ptr %0, i64 52
  %47 = getelementptr inbounds nuw i8, ptr %7, i64 52
  %48 = load i32, ptr %47, align 4
  store i32 %48, ptr %46, align 4
  %49 = getelementptr inbounds nuw i8, ptr %0, i64 56
  store i32 %24, ptr %49, align 8
  %50 = getelementptr inbounds nuw i8, ptr %0, i64 64
  store i64 %23, ptr %50, align 8
  %.not45 = icmp eq ptr %27, null
  br i1 %.not45, label %75, label %51

51:                                               ; preds = %.critedge
  %52 = atomicrmw add ptr %27, i32 1 acq_rel, align 4
  br label %75

53:                                               ; preds = %74
  %54 = landingpad { ptr, i32 }
          cleanup
  %55 = getelementptr inbounds nuw i8, ptr %7, i64 8
  %56 = load ptr, ptr %55, align 8
  %.not = icmp eq ptr %56, null
  br i1 %.not, label %70, label %57

57:                                               ; preds = %53
  %58 = atomicrmw add ptr %56, i32 -1 acq_rel, align 4
  %59 = icmp eq i32 %58, 1
  br i1 %59, label %60, label %70

60:                                               ; preds = %57
  %61 = getelementptr inbounds nuw i8, ptr %7, i64 32
  %62 = load ptr, ptr %61, align 8
  %.not43 = icmp eq ptr %62, null
  %63 = load ptr, ptr %7, align 8
  br i1 %.not43, label %68, label %64

64:                                               ; preds = %60
  %65 = load ptr, ptr %62, align 8
  %66 = getelementptr inbounds i8, ptr %65, i64 24
  %67 = load ptr, ptr %66, align 8
  invoke void %67(ptr noundef nonnull align 8 dereferenceable(8) %62, ptr noundef %63)
          to label %70 unwind label %71

68:                                               ; preds = %60
  %.not44 = icmp eq ptr %63, null
  br i1 %.not44, label %70, label %69

69:                                               ; preds = %68
  call void @free(ptr noundef nonnull %63) #17
  br label %70

70:                                               ; preds = %64, %69, %68, %57, %53
  resume { ptr, i32 } %54

71:                                               ; preds = %64
  %72 = landingpad { ptr, i32 }
          catch ptr null
  %73 = extractvalue { ptr, i32 } %72, 0
  call void @__clang_call_terminate(ptr %73) #18
  unreachable

74:                                               ; preds = %15
  invoke void @_ZNK4ncnn3Mat7reshapeEiiiPNS_9AllocatorE(ptr dead_on_unwind writable sret(%"class.ncnn::Mat") align 8 %0, ptr noundef nonnull align 8 dereferenceable(72) %7, i32 noundef %2, i32 noundef %3, i32 noundef %4, ptr noundef null)
          to label %75 unwind label %53

75:                                               ; preds = %74, %51, %.critedge
  %76 = getelementptr inbounds nuw i8, ptr %7, i64 8
  %77 = load ptr, ptr %76, align 8
  %.not46 = icmp eq ptr %77, null
  br i1 %.not46, label %91, label %78

78:                                               ; preds = %75
  %79 = atomicrmw add ptr %77, i32 -1 acq_rel, align 4
  %80 = icmp eq i32 %79, 1
  br i1 %80, label %81, label %91

81:                                               ; preds = %78
  %82 = getelementptr inbounds nuw i8, ptr %7, i64 32
  %83 = load ptr, ptr %82, align 8
  %.not47 = icmp eq ptr %83, null
  %84 = load ptr, ptr %7, align 8
  br i1 %.not47, label %89, label %85

85:                                               ; preds = %81
  %86 = load ptr, ptr %83, align 8
  %87 = getelementptr inbounds i8, ptr %86, i64 24
  %88 = load ptr, ptr %87, align 8
  invoke void %88(ptr noundef nonnull align 8 dereferenceable(8) %83, ptr noundef %84)
          to label %91 unwind label %92

89:                                               ; preds = %81
  %.not48 = icmp eq ptr %84, null
  br i1 %.not48, label %91, label %90

90:                                               ; preds = %89
  call void @free(ptr noundef nonnull %84) #17
  br label %91

91:                                               ; preds = %85, %90, %89, %78, %75
  ret void

92:                                               ; preds = %85
  %93 = landingpad { ptr, i32 }
          catch ptr null
  %94 = extractvalue { ptr, i32 } %93, 0
  call void @__clang_call_terminate(ptr %94) #18
  unreachable
}